; Function Attrs: mustprogress uwtable
define hidden noundef nonnull align 8 dereferenceable(8) ptr @_ZNK1q6clause7displayERN3euf6solverERSo(ptr noundef nonnull readonly align 8 captures(none) dereferenceable(56) %0, ptr noundef nonnull readonly align 8 captures(none) dereferenceable(8456) %1, ptr noundef nonnull returned align 8 dereferenceable(8) %2) local_unnamed_addr #3 align 2 {
  %4 = tail call noundef nonnull align 8 dereferenceable(8) ptr @_ZSt16__ostream_insertIcSt11char_traitsIcEERSt13basic_ostreamIT_T0_ES6_PKS3_l(ptr noundef nonnull align 8 dereferenceable(8) %2, ptr noundef nonnull @.str.5, i64 noundef 8)
  %5 = getelementptr inbounds nuw i8, ptr %0, i64 8
  %6 = load ptr, ptr %5, align 8, !tbaa !169
  %7 = icmp eq ptr %6, null
  br i1 %7, label %._crit_edge, label %_ZNK6vectorIN1q3litELb1EjE3endEv.exit

_ZNK6vectorIN1q3litELb1EjE3endEv.exit:            ; preds = %3
  %8 = getelementptr inbounds i8, ptr %6, i64 -4
  %9 = load i32, ptr %8, align 4, !tbaa !172
  %10 = zext i32 %9 to i64
  %11 = getelementptr inbounds nuw %"struct.q::lit", ptr %6, i64 %10
  %.not24 = icmp eq i32 %9, 0
  br i1 %.not24, label %._crit_edge, label %.lr.ph

._crit_edge:                                      ; preds = %.lr.ph, %3, %_ZNK6vectorIN1q3litELb1EjE3endEv.exit
  %12 = getelementptr inbounds nuw i8, ptr %0, i64 48
  %13 = load ptr, ptr %12, align 8, !tbaa !173
  %.not22 = icmp eq ptr %13, null
  br i1 %.not22, label %.loopexit, label %.preheader

.lr.ph:                                           ; preds = %_ZNK6vectorIN1q3litELb1EjE3endEv.exit, %.lr.ph
  %.02025 = phi ptr [ %16, %.lr.ph ], [ %6, %_ZNK6vectorIN1q3litELb1EjE3endEv.exit ]
  %14 = tail call noundef nonnull align 8 dereferenceable(8) ptr @_ZNK1q3lit7displayERSo(ptr noundef nonnull align 8 dereferenceable(33) %.02025, ptr noundef nonnull align 8 dereferenceable(8) %2)
  %15 = tail call noundef nonnull align 8 dereferenceable(8) ptr @_ZSt16__ostream_insertIcSt11char_traitsIcEERSt13basic_ostreamIT_T0_ES6_PKS3_l(ptr noundef nonnull align 8 dereferenceable(8) %14, ptr noundef nonnull @.str.6, i64 noundef 1)
  %16 = getelementptr inbounds nuw i8, ptr %.02025, i64 40
  %.not = icmp eq ptr %16, %11
  br i1 %.not, label %._crit_edge, label %.lr.ph

.preheader:                                       ; preds = %._crit_edge, %.preheader
  %.0 = phi ptr [ %19, %.preheader ], [ %13, %._crit_edge ]
  %17 = tail call noundef nonnull align 8 dereferenceable(8) ptr @_ZNK1q7binding7displayERN3euf6solverERSo(ptr noundef nonnull align 8 dereferenceable(48) %.0, ptr noundef nonnull align 8 dereferenceable(8456) %1, ptr noundef nonnull align 8 dereferenceable(8) %2)
  %18 = tail call noundef nonnull align 8 dereferenceable(8) ptr @_ZSt16__ostream_insertIcSt11char_traitsIcEERSt13basic_ostreamIT_T0_ES6_PKS3_l(ptr noundef nonnull align 8 dereferenceable(8) %2, ptr noundef nonnull @.str.6, i64 noundef 1)
  %19 = load ptr, ptr %.0, align 8, !tbaa !177
  %20 = load ptr, ptr %12, align 8, !tbaa !173
  %.not23 = icmp eq ptr %19, %20
  br i1 %.not23, label %.loopexit, label %.preheader, !llvm.loop !178

.loopexit:                                        ; preds = %.preheader, %._crit_edge
  ret ptr %2
}